; Function Attrs: mustprogress nounwind willreturn uwtable
define void @Ssw_CreatePair(ptr noundef captures(none) %0, ptr noundef initializes((40, 48)) %1, ptr noundef %2) local_unnamed_addr #0 {
  %4 = getelementptr inbounds nuw i8, ptr %1, i64 40
  store ptr %2, ptr %4, align 8, !tbaa !3
  %5 = getelementptr inbounds nuw i8, ptr %2, i64 40
  store ptr %1, ptr %5, align 8, !tbaa !3
  %6 = getelementptr inbounds nuw i8, ptr %1, i64 36
  %7 = load i32, ptr %6, align 4, !tbaa !6
  %8 = getelementptr inbounds nuw i8, ptr %0, i64 4
  %9 = load i32, ptr %8, align 4, !tbaa !11
  %10 = load i32, ptr %0, align 8, !tbaa !14
  %11 = icmp eq i32 %9, %10
  br i1 %11, label %12, label %.Vec_IntGrow.exit10_crit_edge.i

.Vec_IntGrow.exit10_crit_edge.i:                  ; preds = %3
  %.phi.trans.insert.i = getelementptr inbounds nuw i8, ptr %0, i64 8
  %.pre.i = load ptr, ptr %.phi.trans.insert.i, align 8, !tbaa !15
  br label %Vec_IntPush.exit

12:                                               ; preds = %3
  %13 = icmp slt i32 %9, 16
  br i1 %13, label %14, label %22

14:                                               ; preds = %12
  %15 = getelementptr inbounds nuw i8, ptr %0, i64 8
  %16 = load ptr, ptr %15, align 8, !tbaa !15
  %.not9.i.i = icmp eq ptr %16, null
  br i1 %.not9.i.i, label %19, label %17

17:                                               ; preds = %14
  %18 = tail call dereferenceable_or_null(64) ptr @realloc(ptr noundef nonnull %16, i64 noundef 64) #13
  br label %Vec_IntGrow.exit.i

19:                                               ; preds = %14
  %20 = tail call noalias dereferenceable_or_null(64) ptr @malloc(i64 noundef 64) #14
  br label %Vec_IntGrow.exit.i

Vec_IntGrow.exit.i:                               ; preds = %19, %17
  %21 = phi ptr [ %18, %17 ], [ %20, %19 ]
  store ptr %21, ptr %15, align 8, !tbaa !15
  store i32 16, ptr %0, align 8, !tbaa !14
  br label %Vec_IntPush.exit

22:                                               ; preds = %12
  %23 = shl nuw nsw i32 %9, 1
  %24 = getelementptr inbounds nuw i8, ptr %0, i64 8
  %25 = load ptr, ptr %24, align 8, !tbaa !15
  %.not9.i9.i = icmp eq ptr %25, null
  %26 = zext nneg i32 %23 to i64
  %27 = shl nuw nsw i64 %26, 2
  br i1 %.not9.i9.i, label %30, label %28

28:                                               ; preds = %22
  %29 = tail call ptr @realloc(ptr noundef nonnull %25, i64 noundef %27) #13
  br label %32

30:                                               ; preds = %22
  %31 = tail call noalias ptr @malloc(i64 noundef %27) #14
  br label %32

32:                                               ; preds = %30, %28
  %33 = phi ptr [ %29, %28 ], [ %31, %30 ]
  store ptr %33, ptr %24, align 8, !tbaa !15
  store i32 %23, ptr %0, align 8, !tbaa !14
  br label %Vec_IntPush.exit

Vec_IntPush.exit:                                 ; preds = %.Vec_IntGrow.exit10_crit_edge.i, %Vec_IntGrow.exit.i, %32
  %34 = phi ptr [ %.pre.i, %.Vec_IntGrow.exit10_crit_edge.i ], [ %33, %32 ], [ %21, %Vec_IntGrow.exit.i ]
  %35 = load i32, ptr %8, align 4, !tbaa !11
  %36 = add nsw i32 %35, 1
  store i32 %36, ptr %8, align 4, !tbaa !11
  %37 = sext i32 %35 to i64
  %38 = getelementptr inbounds i32, ptr %34, i64 %37
  store i32 %7, ptr %38, align 4, !tbaa !16
  %39 = getelementptr inbounds nuw i8, ptr %2, i64 36
  %40 = load i32, ptr %39, align 4, !tbaa !6
  %41 = load i32, ptr %8, align 4, !tbaa !11
  %42 = load i32, ptr %0, align 8, !tbaa !14
  %43 = icmp eq i32 %41, %42
  br i1 %43, label %44, label %Vec_IntPush.exit14

44:                                               ; preds = %Vec_IntPush.exit
  %45 = icmp slt i32 %41, 16
  br i1 %45, label %Vec_IntGrow.exit.i13, label %48

Vec_IntGrow.exit.i13:                             ; preds = %44
  %46 = getelementptr inbounds nuw i8, ptr %0, i64 8
  %47 = tail call dereferenceable_or_null(64) ptr @realloc(ptr noundef nonnull %34, i64 noundef 64) #13
  store ptr %47, ptr %46, align 8, !tbaa !15
  br label %Vec_IntPush.exit14.sink.split

48:                                               ; preds = %44
  %49 = shl nuw nsw i32 %41, 1
  %50 = getelementptr inbounds nuw i8, ptr %0, i64 8
  %51 = zext nneg i32 %49 to i64
  %52 = shl nuw nsw i64 %51, 2
  %53 = tail call ptr @realloc(ptr noundef nonnull %34, i64 noundef %52) #13
  store ptr %53, ptr %50, align 8, !tbaa !15
  br label %Vec_IntPush.exit14.sink.split

Vec_IntPush.exit14.sink.split:                    ; preds = %48, %Vec_IntGrow.exit.i13
  %.sink = phi i32 [ 16, %Vec_IntGrow.exit.i13 ], [ %49, %48 ]
  %.ph = phi ptr [ %47, %Vec_IntGrow.exit.i13 ], [ %53, %48 ]
  store i32 %.sink, ptr %0, align 8, !tbaa !14
  br label %Vec_IntPush.exit14

Vec_IntPush.exit14:                               ; preds = %Vec_IntPush.exit14.sink.split, %Vec_IntPush.exit
  %54 = phi ptr [ %34, %Vec_IntPush.exit ], [ %.ph, %Vec_IntPush.exit14.sink.split ]
  %55 = load i32, ptr %8, align 4, !tbaa !11
  %56 = add nsw i32 %55, 1
  store i32 %56, ptr %8, align 4, !tbaa !11
  %57 = sext i32 %55 to i64
  %58 = getelementptr inbounds i32, ptr %54, i64 %57
  store i32 %40, ptr %58, align 4, !tbaa !16
  ret void
}